; Function Attrs: nounwind uwtable
define dso_local ptr @ewah_new() local_unnamed_addr #0 {
  %1 = tail call ptr @xmalloc(i64 noundef 40) #12
  %2 = getelementptr inbounds nuw i8, ptr %1, i64 16
  store i64 32, ptr %2, align 8, !tbaa !15
  %3 = tail call ptr @xmalloc(i64 noundef 256) #12
  store ptr %3, ptr %1, align 8, !tbaa !14
  %4 = getelementptr inbounds nuw i8, ptr %1, i64 8
  store i64 1, ptr %4, align 8, !tbaa !13
  store i64 0, ptr %3, align 8, !tbaa !12
  %5 = getelementptr inbounds nuw i8, ptr %1, i64 24
  store i64 0, ptr %5, align 8, !tbaa !4
  %6 = getelementptr inbounds nuw i8, ptr %1, i64 32
  store ptr %3, ptr %6, align 8, !tbaa !11
  ret ptr %1
}